; Function Attrs: nounwind uwtable
define ptr @l_Lean_Meta_substCore___lambda__18___boxed(ptr noundef readonly captures(none) %0) local_unnamed_addr #0 {
  %2 = load ptr, ptr %0, align 8, !tbaa !11
  %3 = getelementptr inbounds nuw i8, ptr %0, i64 8
  %4 = load ptr, ptr %3, align 8, !tbaa !11
  %5 = getelementptr inbounds nuw i8, ptr %0, i64 16
  %6 = load ptr, ptr %5, align 8, !tbaa !11
  %7 = getelementptr inbounds nuw i8, ptr %0, i64 24
  %8 = load ptr, ptr %7, align 8, !tbaa !11
  %9 = getelementptr inbounds nuw i8, ptr %0, i64 32
  %10 = load ptr, ptr %9, align 8, !tbaa !11
  %11 = getelementptr inbounds nuw i8, ptr %0, i64 40
  %12 = load ptr, ptr %11, align 8, !tbaa !11
  %13 = getelementptr inbounds nuw i8, ptr %0, i64 48
  %14 = load ptr, ptr %13, align 8, !tbaa !11
  %15 = getelementptr inbounds nuw i8, ptr %0, i64 56
  %16 = load ptr, ptr %15, align 8, !tbaa !11
  %17 = getelementptr inbounds nuw i8, ptr %0, i64 64
  %18 = load ptr, ptr %17, align 8, !tbaa !11
  %19 = getelementptr inbounds nuw i8, ptr %0, i64 72
  %20 = load ptr, ptr %19, align 8, !tbaa !11
  %21 = getelementptr inbounds nuw i8, ptr %0, i64 80
  %22 = load ptr, ptr %21, align 8, !tbaa !11
  %23 = getelementptr inbounds nuw i8, ptr %0, i64 88
  %24 = load ptr, ptr %23, align 8, !tbaa !11
  %25 = getelementptr inbounds nuw i8, ptr %0, i64 96
  %26 = load ptr, ptr %25, align 8, !tbaa !11
  %27 = getelementptr inbounds nuw i8, ptr %0, i64 104
  %28 = load ptr, ptr %27, align 8, !tbaa !11
  %29 = getelementptr inbounds nuw i8, ptr %0, i64 112
  %30 = load ptr, ptr %29, align 8, !tbaa !11
  %31 = getelementptr inbounds nuw i8, ptr %0, i64 120
  %32 = load ptr, ptr %31, align 8, !tbaa !11
  %33 = getelementptr inbounds nuw i8, ptr %0, i64 128
  %34 = load ptr, ptr %33, align 8, !tbaa !11
  %35 = ptrtoint ptr %14 to i64
  %36 = lshr i64 %35, 1
  %37 = trunc i64 %36 to i8
  %38 = and i64 %35, 1
  %.not = icmp eq i64 %38, 0
  br i1 %.not, label %39, label %lean_dec.exit43

39:                                               ; preds = %1
  %40 = load i32, ptr %14, align 4, !tbaa !5
  %41 = icmp sgt i32 %40, 1
  br i1 %41, label %42, label %44, !prof !10

42:                                               ; preds = %39
  %43 = add nsw i32 %40, -1
  store i32 %43, ptr %14, align 4, !tbaa !5
  br label %lean_dec.exit43

44:                                               ; preds = %39
  %.not.i = icmp eq i32 %40, 0
  br i1 %.not.i, label %lean_dec.exit43, label %45

45:                                               ; preds = %44
  tail call void @lean_dec_ref_cold(ptr noundef nonnull %14) #4
  br label %lean_dec.exit43

lean_dec.exit43:                                  ; preds = %45, %44, %42, %1
  %46 = ptrtoint ptr %20 to i64
  %47 = lshr i64 %46, 1
  %48 = trunc i64 %47 to i8
  %49 = and i64 %46, 1
  %.not50 = icmp eq i64 %49, 0
  br i1 %.not50, label %50, label %lean_dec.exit42

50:                                               ; preds = %lean_dec.exit43
  %51 = load i32, ptr %20, align 4, !tbaa !5
  %52 = icmp sgt i32 %51, 1
  br i1 %52, label %53, label %55, !prof !10

53:                                               ; preds = %50
  %54 = add nsw i32 %51, -1
  store i32 %54, ptr %20, align 4, !tbaa !5
  br label %lean_dec.exit42

55:                                               ; preds = %50
  %.not.i44 = icmp eq i32 %51, 0
  br i1 %.not.i44, label %lean_dec.exit42, label %56

56:                                               ; preds = %55
  tail call void @lean_dec_ref_cold(ptr noundef nonnull %20) #4
  br label %lean_dec.exit42

lean_dec.exit42:                                  ; preds = %56, %55, %53, %lean_dec.exit43
  %57 = ptrtoint ptr %22 to i64
  %58 = lshr i64 %57, 1
  %59 = trunc i64 %58 to i8
  %60 = and i64 %57, 1
  %.not51 = icmp eq i64 %60, 0
  br i1 %.not51, label %61, label %lean_dec.exit41

61:                                               ; preds = %lean_dec.exit42
  %62 = load i32, ptr %22, align 4, !tbaa !5
  %63 = icmp sgt i32 %62, 1
  br i1 %63, label %64, label %66, !prof !10

64:                                               ; preds = %61
  %65 = add nsw i32 %62, -1
  store i32 %65, ptr %22, align 4, !tbaa !5
  br label %lean_dec.exit41

66:                                               ; preds = %61
  %.not.i46 = icmp eq i32 %62, 0
  br i1 %.not.i46, label %lean_dec.exit41, label %67

67:                                               ; preds = %66
  tail call void @lean_dec_ref_cold(ptr noundef nonnull %22) #4
  br label %lean_dec.exit41

lean_dec.exit41:                                  ; preds = %67, %66, %64, %lean_dec.exit42
  %68 = tail call ptr @l_Lean_Meta_substCore___lambda__18(ptr noundef %2, ptr noundef %4, ptr noundef %6, ptr noundef %8, ptr noundef %10, ptr noundef %12, i8 noundef zeroext %37, ptr noundef %16, ptr noundef %18, i8 noundef zeroext %48, i8 noundef zeroext %59, ptr poison, ptr noundef %26, ptr noundef %28, ptr noundef %30, ptr noundef %32, ptr noundef %34)
  %69 = ptrtoint ptr %24 to i64
  %70 = and i64 %69, 1
  %.not52 = icmp eq i64 %70, 0
  br i1 %.not52, label %71, label %lean_dec.exit

71:                                               ; preds = %lean_dec.exit41
  %72 = load i32, ptr %24, align 4, !tbaa !5
  %73 = icmp sgt i32 %72, 1
  br i1 %73, label %74, label %76, !prof !10

74:                                               ; preds = %71
  %75 = add nsw i32 %72, -1
  store i32 %75, ptr %24, align 4, !tbaa !5
  br label %lean_dec.exit

76:                                               ; preds = %71
  %.not.i48 = icmp eq i32 %72, 0
  br i1 %.not.i48, label %lean_dec.exit, label %77

77:                                               ; preds = %76
  tail call void @lean_dec_ref_cold(ptr noundef nonnull %24) #4
  br label %lean_dec.exit

lean_dec.exit:                                    ; preds = %77, %76, %74, %lean_dec.exit41
  ret ptr %68
}